target datalayout = "e-m:e-p270:32:32-p271:32:32-p272:64:64-i64:64-i128:128-f80:128-n8:16:32:64-S128"
target triple = "x86_64-pc-linux-gnu"

%struct.ZSTDv05_DCtx_s = type { [1025 x i32], [513 x i32], [1025 x i32], [4097 x i32], ptr, ptr, ptr, ptr, i64, i64, %struct.ZSTDv05_parameters, i32, i32, i32, ptr, i64, [131080 x i8], [5 x i8] }
%struct.ZSTDv05_parameters = type { i64, i32, i32, i32, i32, i32, i32, i32 }
%struct.ZBUFFv05_DCtx_s = type { ptr, %struct.ZSTDv05_parameters, ptr, i64, i64, ptr, i64, i64, i64, i64, i32, [5 x i8] }

; Function Attrs: nounwind uwtable
define i64 @ZSTDv05_decompressBegin(ptr noundef %0) #0 {
  %2 = alloca ptr, align 8
  store ptr %0, ptr %2, align 8, !tbaa !75
  %3 = load ptr, ptr %2, align 8, !tbaa !75
  %4 = getelementptr inbounds nuw %struct.ZSTDv05_DCtx_s, ptr %3, i32 0, i32 8
  store i64 5, ptr %4, align 8, !tbaa !77
  %5 = load ptr, ptr %2, align 8, !tbaa !75
  %6 = getelementptr inbounds nuw %struct.ZSTDv05_DCtx_s, ptr %5, i32 0, i32 12
  store i32 0, ptr %6, align 4, !tbaa !80
  %7 = load ptr, ptr %2, align 8, !tbaa !75
  %8 = getelementptr inbounds nuw %struct.ZSTDv05_DCtx_s, ptr %7, i32 0, i32 4
  store ptr null, ptr %8, align 8, !tbaa !81
  %9 = load ptr, ptr %2, align 8, !tbaa !75
  %10 = getelementptr inbounds nuw %struct.ZSTDv05_DCtx_s, ptr %9, i32 0, i32 5
  store ptr null, ptr %10, align 8, !tbaa !82
  %11 = load ptr, ptr %2, align 8, !tbaa !75
  %12 = getelementptr inbounds nuw %struct.ZSTDv05_DCtx_s, ptr %11, i32 0, i32 6
  store ptr null, ptr %12, align 8, !tbaa !83
  %13 = load ptr, ptr %2, align 8, !tbaa !75
  %14 = getelementptr inbounds nuw %struct.ZSTDv05_DCtx_s, ptr %13, i32 0, i32 7
  store ptr null, ptr %14, align 8, !tbaa !84
  %15 = load ptr, ptr %2, align 8, !tbaa !75
  %16 = getelementptr inbounds nuw %struct.ZSTDv05_DCtx_s, ptr %15, i32 0, i32 3
  %17 = getelementptr inbounds [4097 x i32], ptr %16, i64 0, i64 0
  store i32 12, ptr %17, align 4, !tbaa !3
  %18 = load ptr, ptr %2, align 8, !tbaa !75
  %19 = getelementptr inbounds nuw %struct.ZSTDv05_DCtx_s, ptr %18, i32 0, i32 13
  store i32 0, ptr %19, align 8, !tbaa !85
  ret i64 0
}

; Function Attrs: nounwind uwtable
define ptr @ZSTDv05_createDCtx() #0 {
  %1 = alloca ptr, align 8
  %2 = alloca ptr, align 8
  %3 = alloca i32, align 4
  call void @llvm.lifetime.start.p0(i64 8, ptr %2) #11
  %4 = call noalias ptr @malloc(i64 noundef 157848) #10
  store ptr %4, ptr %2, align 8, !tbaa !75
  %5 = load ptr, ptr %2, align 8, !tbaa !75
  %6 = icmp eq ptr %5, null
  br i1 %6, label %7, label %8

7:                                                ; preds = %0
  store ptr null, ptr %1, align 8
  store i32 1, ptr %3, align 4
  br label %12

8:                                                ; preds = %0
  %9 = load ptr, ptr %2, align 8, !tbaa !75
  %10 = call i64 @ZSTDv05_decompressBegin(ptr noundef %9)
  %11 = load ptr, ptr %2, align 8, !tbaa !75
  store ptr %11, ptr %1, align 8
  store i32 1, ptr %3, align 4
  br label %12

12:                                               ; preds = %8, %7
  call void @llvm.lifetime.end.p0(i64 8, ptr %2) #11
  %13 = load ptr, ptr %1, align 8
  ret ptr %13
}

; Function Attrs: nounwind uwtable
define ptr @ZBUFFv05_createDCtx() #0 {
  %1 = alloca ptr, align 8
  %2 = alloca ptr, align 8
  %3 = alloca i32, align 4
  call void @llvm.lifetime.start.p0(i64 8, ptr %2) #11
  %4 = call noalias ptr @malloc(i64 noundef 128) #10
  store ptr %4, ptr %2, align 8, !tbaa !96
  %5 = load ptr, ptr %2, align 8, !tbaa !96
  %6 = icmp eq ptr %5, null
  br i1 %6, label %7, label %8

7:                                                ; preds = %0
  store ptr null, ptr %1, align 8
  store i32 1, ptr %3, align 4
  br label %16

8:                                                ; preds = %0
  %9 = load ptr, ptr %2, align 8, !tbaa !96
  call void @llvm.memset.p0.i64(ptr align 8 %9, i8 0, i64 128, i1 false)
  %10 = call ptr @ZSTDv05_createDCtx()
  %11 = load ptr, ptr %2, align 8, !tbaa !96
  %12 = getelementptr inbounds nuw %struct.ZBUFFv05_DCtx_s, ptr %11, i32 0, i32 0
  store ptr %10, ptr %12, align 8, !tbaa !98
  %13 = load ptr, ptr %2, align 8, !tbaa !96
  %14 = getelementptr inbounds nuw %struct.ZBUFFv05_DCtx_s, ptr %13, i32 0, i32 10
  store i32 0, ptr %14, align 8, !tbaa !100
  %15 = load ptr, ptr %2, align 8, !tbaa !96
  store ptr %15, ptr %1, align 8
  store i32 1, ptr %3, align 4
  br label %16

16:                                               ; preds = %8, %7
  call void @llvm.lifetime.end.p0(i64 8, ptr %2) #11
  %17 = load ptr, ptr %1, align 8
  ret ptr %17
}