; Function Attrs: mustprogress nofree nounwind willreturn memory(write, argmem: none, inaccessiblemem: readwrite) uwtable
define noalias noundef ptr @ZBUFFv05_createDCtx() local_unnamed_addr #16 {
  %calloc = tail call dereferenceable_or_null(128) ptr @calloc(i64 1, i64 128)
  %1 = icmp eq ptr %calloc, null
  br i1 %1, label %12, label %2

2:                                                ; preds = %0
  %3 = tail call noalias dereferenceable_or_null(157848) ptr @malloc(i64 noundef 157848) #26
  %4 = icmp eq ptr %3, null
  br i1 %4, label %ZSTDv05_createDCtx.exit, label %5

5:                                                ; preds = %2
  %6 = getelementptr inbounds nuw i8, ptr %3, i64 26672
  store i64 5, ptr %6, align 8, !tbaa !70
  %7 = getelementptr inbounds nuw i8, ptr %3, i64 26732
  store i32 0, ptr %7, align 4, !tbaa !73
  %8 = getelementptr inbounds nuw i8, ptr %3, i64 26640
  %9 = getelementptr inbounds nuw i8, ptr %3, i64 10252
  tail call void @llvm.memset.p0.i64(ptr noundef nonnull align 8 dereferenceable(32) %8, i8 0, i64 32, i1 false)
  store i32 12, ptr %9, align 4, !tbaa !17
  %10 = getelementptr inbounds nuw i8, ptr %3, i64 26736
  store i32 0, ptr %10, align 8, !tbaa !74
  br label %ZSTDv05_createDCtx.exit

ZSTDv05_createDCtx.exit:                          ; preds = %2, %5
  store ptr %3, ptr %calloc, align 8, !tbaa !89
  %11 = getelementptr inbounds nuw i8, ptr %calloc, i64 112
  store i32 0, ptr %11, align 8, !tbaa !92
  br label %12

12:                                               ; preds = %0, %ZSTDv05_createDCtx.exit
  ret ptr %calloc
}